target datalayout = "e-m:e-p270:32:32-p271:32:32-p272:64:64-i64:64-i128:128-f80:128-n8:16:32:64-S128"
target triple = "x86_64-pc-linux-gnu"

%struct.quic_info_data = type { i32, i32, ptr, i16, i32, i32, i32, %struct.quic_ciphers, %struct.quic_ciphers, %struct.quic_ciphers, %struct.quic_ciphers, %struct.quic_ciphers, %struct.quic_pp_state, %struct.quic_pp_state, [3 x i64], [3 x i64], ptr, ptr, %struct.quic_cid_item, %struct.quic_cid_item, %struct.quic_cid, ptr, ptr, ptr, ptr, ptr, ptr, ptr, ptr, ptr, ptr }
%struct.quic_ciphers = type { %struct.quic_hp_cipher, %struct.quic_pp_cipher }
%struct.quic_hp_cipher = type { ptr }
%struct.quic_pp_cipher = type { ptr, [12 x i8] }
%struct.quic_pp_state = type { ptr, [2 x %struct.quic_pp_cipher], %struct.quic_hp_cipher, i64, i8 }
%struct.quic_cid_item = type { ptr, %struct.quic_cid }
%struct.quic_cid = type { i8, [20 x i8], [16 x i8], i8, i64, i64 }

@proto_quic = internal global i32 0, align 4

; Function Attrs: alwaysinline nounwind
define internal ptr @memcpy.inline(ptr noalias %0, ptr noalias %1, i64 %2) #4 {
  %4 = alloca ptr, align 8
  %5 = alloca ptr, align 8
  %6 = alloca i64, align 8
  store ptr %0, ptr %4, align 8
  store ptr %1, ptr %5, align 8
  store i64 %2, ptr %6, align 8
  %7 = load ptr, ptr %4, align 8
  %8 = load ptr, ptr %5, align 8
  %9 = load i64, ptr %6, align 8
  %10 = load ptr, ptr %4, align 8
  %11 = call i64 @llvm.objectsize.i64.p0(ptr %10, i1 false, i1 true, i1 true)
  %12 = call ptr @__memcpy_chk(ptr noundef %7, ptr noundef %8, i64 noundef %9, i64 noundef %11) #19
  ret ptr %12
}

; Function Attrs: alwaysinline nounwind
define internal ptr @memset.inline(ptr %0, i32 %1, i64 %2) #4 {
  %4 = alloca ptr, align 8
  %5 = alloca i32, align 4
  %6 = alloca i64, align 8
  store ptr %0, ptr %4, align 8
  store i32 %1, ptr %5, align 4
  store i64 %2, ptr %6, align 8
  %7 = load ptr, ptr %4, align 8
  %8 = load i32, ptr %5, align 4
  %9 = load i64, ptr %6, align 8
  %10 = load ptr, ptr %4, align 8
  %11 = call i64 @llvm.objectsize.i64.p0(ptr %10, i1 false, i1 true, i1 true)
  %12 = call ptr @__memset_chk(ptr noundef %7, i32 noundef %8, i64 noundef %9, i64 noundef %11) #19
  ret ptr %12
}

; Function Attrs: null_pointer_is_valid sspstrong uwtable
define internal ptr @quic_connection_from_conv(ptr noundef %0) #0 {
  %2 = alloca ptr, align 8
  %3 = alloca ptr, align 8
  %4 = alloca ptr, align 8
  %5 = alloca i32, align 4
  store ptr %0, ptr %3, align 8
  call void @llvm.lifetime.start.p0(i64 8, ptr %4) #19
  %6 = load ptr, ptr %3, align 8
  %7 = call ptr @find_conversation_pinfo(ptr noundef %6, i32 noundef 0)
  store ptr %7, ptr %4, align 8
  %8 = load ptr, ptr %4, align 8
  %9 = icmp ne ptr %8, null
  br i1 %9, label %10, label %14

10:                                               ; preds = %1
  %11 = load ptr, ptr %4, align 8
  %12 = load i32, ptr @proto_quic, align 4
  %13 = call ptr @conversation_get_proto_data(ptr noundef %11, i32 noundef %12)
  store ptr %13, ptr %2, align 8
  store i32 1, ptr %5, align 4
  br label %15

14:                                               ; preds = %1
  store ptr null, ptr %2, align 8
  store i32 1, ptr %5, align 4
  br label %15

15:                                               ; preds = %14, %10
  call void @llvm.lifetime.end.p0(i64 8, ptr %4) #19
  %16 = load ptr, ptr %2, align 8
  ret ptr %16
}

; Function Attrs: null_pointer_is_valid sspstrong uwtable
define zeroext i1 @quic_conn_data_get_conn_client_dcid_initial(ptr noundef %0, ptr noundef %1) #0 {
  %3 = alloca i1, align 1
  %4 = alloca ptr, align 8
  %5 = alloca ptr, align 8
  %6 = alloca ptr, align 8
  %7 = alloca i32, align 4
  store ptr %0, ptr %4, align 8
  store ptr %1, ptr %5, align 8
  %8 = load ptr, ptr %4, align 8
  %9 = icmp eq ptr %8, null
  br i1 %9, label %13, label %10

10:                                               ; preds = %2
  %11 = load ptr, ptr %5, align 8
  %12 = icmp eq ptr %11, null
  br i1 %12, label %13, label %14

13:                                               ; preds = %10, %2
  store i1 false, ptr %3, align 1
  br label %44

14:                                               ; preds = %10
  call void @llvm.lifetime.start.p0(i64 8, ptr %6) #19
  %15 = load ptr, ptr %4, align 8
  %16 = call ptr @quic_connection_from_conv(ptr noundef %15)
  store ptr %16, ptr %6, align 8
  %17 = load ptr, ptr %6, align 8
  %18 = icmp eq ptr %17, null
  br i1 %18, label %19, label %20

19:                                               ; preds = %14
  store i1 false, ptr %3, align 1
  store i32 1, ptr %7, align 4
  br label %43

20:                                               ; preds = %14
  %21 = load ptr, ptr %6, align 8
  %22 = getelementptr inbounds nuw %struct.quic_info_data, ptr %21, i32 0, i32 20
  %23 = getelementptr inbounds nuw %struct.quic_cid, ptr %22, i32 0, i32 0
  %24 = load i8, ptr %23, align 8
  %25 = load ptr, ptr %5, align 8
  %26 = getelementptr inbounds nuw %struct.quic_cid, ptr %25, i32 0, i32 0
  store i8 %24, ptr %26, align 8
  %27 = load ptr, ptr %5, align 8
  %28 = getelementptr inbounds nuw %struct.quic_cid, ptr %27, i32 0, i32 1
  %29 = getelementptr inbounds [20 x i8], ptr %28, i64 0, i64 0
  %30 = call ptr @memset.inline(ptr noundef %29, i32 noundef 0, i64 noundef 20) #19
  %31 = load ptr, ptr %5, align 8
  %32 = getelementptr inbounds nuw %struct.quic_cid, ptr %31, i32 0, i32 1
  %33 = getelementptr inbounds [20 x i8], ptr %32, i64 0, i64 0
  %34 = load ptr, ptr %6, align 8
  %35 = getelementptr inbounds nuw %struct.quic_info_data, ptr %34, i32 0, i32 20
  %36 = getelementptr inbounds nuw %struct.quic_cid, ptr %35, i32 0, i32 1
  %37 = getelementptr inbounds [20 x i8], ptr %36, i64 0, i64 0
  %38 = load ptr, ptr %5, align 8
  %39 = getelementptr inbounds nuw %struct.quic_cid, ptr %38, i32 0, i32 0
  %40 = load i8, ptr %39, align 8
  %41 = zext i8 %40 to i64
  %42 = call ptr @memcpy.inline(ptr noundef %33, ptr noundef %37, i64 noundef %41) #19
  store i1 true, ptr %3, align 1
  store i32 1, ptr %7, align 4
  br label %43

43:                                               ; preds = %20, %19
  call void @llvm.lifetime.end.p0(i64 8, ptr %6) #19
  br label %44

44:                                               ; preds = %43, %13
  %45 = load i1, ptr %3, align 1
  ret i1 %45
}