; Function Attrs: null_pointer_is_valid sspstrong uwtable
define noundef zeroext i1 @quic_conn_data_get_conn_client_dcid_initial(ptr noundef %0, ptr noundef %1) local_unnamed_addr #0 {
  %3 = icmp eq ptr %0, null
  %4 = icmp eq ptr %1, null
  %or.cond = or i1 %3, %4
  br i1 %or.cond, label %quic_connection_from_conv.exit.thread, label %5

5:                                                ; preds = %2
  %6 = tail call ptr @find_conversation_pinfo(ptr noundef nonnull %0, i32 noundef 0)
  %.not.i = icmp eq ptr %6, null
  br i1 %.not.i, label %quic_connection_from_conv.exit.thread, label %quic_connection_from_conv.exit

quic_connection_from_conv.exit:                   ; preds = %5
  %7 = load i32, ptr @proto_quic, align 4
  %8 = tail call ptr @conversation_get_proto_data(ptr noundef nonnull %6, i32 noundef %7)
  %.not = icmp eq ptr %8, null
  br i1 %.not, label %quic_connection_from_conv.exit.thread, label %9

9:                                                ; preds = %quic_connection_from_conv.exit
  %10 = getelementptr inbounds nuw i8, ptr %8, i64 544
  %11 = load i8, ptr %10, align 8
  store i8 %11, ptr %1, align 8
  %12 = getelementptr inbounds nuw i8, ptr %1, i64 1
  tail call void @llvm.memset.p0.i64(ptr noundef nonnull align 1 dereferenceable(20) %12, i8 noundef 0, i64 noundef 20, i1 noundef false) #18
  %13 = getelementptr inbounds nuw i8, ptr %8, i64 545
  %14 = zext i8 %11 to i64
  tail call void @llvm.memcpy.p0.p0.i64(ptr noundef nonnull align 1 %12, ptr noundef nonnull align 1 %13, i64 noundef range(i64 0, 4294967296) %14, i1 noundef false) #18
  br label %quic_connection_from_conv.exit.thread

quic_connection_from_conv.exit.thread:            ; preds = %5, %9, %quic_connection_from_conv.exit, %2
  %.0 = phi i1 [ false, %2 ], [ false, %quic_connection_from_conv.exit ], [ true, %9 ], [ false, %5 ]
  ret i1 %.0
}